target datalayout = "e-m:e-p270:32:32-p271:32:32-p272:64:64-i64:64-i128:128-f80:128-n8:16:32:64-S128"
target triple = "x86_64-pc-linux-gnu"

%struct.RClass_and_rb_classext_t = type { %struct.RClass, %struct.rb_classext_struct }
%struct.RClass = type { %struct.RBasic, i64, ptr }
%struct.RBasic = type { i64, i64 }
%struct.rb_classext_struct = type { ptr, ptr, ptr, ptr, ptr, i64, ptr, ptr, ptr, ptr, i64, i64, %union.anon, i64, i32, i8, i8, i64 }
%union.anon = type { %struct.anon }
%struct.anon = type { ptr }
%struct.rb_subclass_entry = type { i64, ptr, ptr }

; Function Attrs: nounwind sspstrong uwtable
define hidden void @rb_class_remove_subclass_head(i64 noundef %0) #0 {
  %2 = alloca i64, align 8
  %3 = alloca ptr, align 8
  store i64 %0, ptr %2, align 8, !tbaa !7
  call void @llvm.lifetime.start.p0(i64 8, ptr %3) #23
  %4 = load i64, ptr %2, align 8, !tbaa !7
  %5 = inttoptr i64 %4 to ptr
  %6 = getelementptr inbounds nuw %struct.RClass_and_rb_classext_t, ptr %5, i32 0, i32 1
  %7 = getelementptr inbounds nuw %struct.rb_classext_struct, ptr %6, i32 0, i32 7
  %8 = load ptr, ptr %7, align 8, !tbaa !25
  store ptr %8, ptr %3, align 8, !tbaa !11
  %9 = load ptr, ptr %3, align 8, !tbaa !11
  %10 = icmp ne ptr %9, null
  br i1 %10, label %11, label %27

11:                                               ; preds = %1
  %12 = load ptr, ptr %3, align 8, !tbaa !11
  %13 = getelementptr inbounds nuw %struct.rb_subclass_entry, ptr %12, i32 0, i32 1
  %14 = load ptr, ptr %13, align 8, !tbaa !26
  %15 = icmp ne ptr %14, null
  br i1 %15, label %16, label %21

16:                                               ; preds = %11
  %17 = load ptr, ptr %3, align 8, !tbaa !11
  %18 = getelementptr inbounds nuw %struct.rb_subclass_entry, ptr %17, i32 0, i32 1
  %19 = load ptr, ptr %18, align 8, !tbaa !26
  %20 = getelementptr inbounds nuw %struct.rb_subclass_entry, ptr %19, i32 0, i32 2
  store ptr null, ptr %20, align 8, !tbaa !27
  br label %21

21:                                               ; preds = %16, %11
  %22 = load i64, ptr %2, align 8, !tbaa !7
  %23 = inttoptr i64 %22 to ptr
  %24 = getelementptr inbounds nuw %struct.RClass_and_rb_classext_t, ptr %23, i32 0, i32 1
  %25 = getelementptr inbounds nuw %struct.rb_classext_struct, ptr %24, i32 0, i32 7
  store ptr null, ptr %25, align 8, !tbaa !25
  %26 = load ptr, ptr %3, align 8, !tbaa !11
  call void @ruby_xfree(ptr noundef %26)
  br label %27

27:                                               ; preds = %21, %1
  call void @llvm.lifetime.end.p0(i64 8, ptr %3) #23
  ret void
}