; Function Attrs: nounwind sspstrong uwtable
define hidden void @rb_class_remove_subclass_head(i64 noundef %0) local_unnamed_addr #0 {
  %2 = inttoptr i64 %0 to ptr
  %3 = getelementptr inbounds nuw i8, ptr %2, i64 88
  %4 = load ptr, ptr %3, align 8, !tbaa !14
  %.not = icmp eq ptr %4, null
  br i1 %.not, label %11, label %5

5:                                                ; preds = %1
  %6 = getelementptr inbounds nuw i8, ptr %4, i64 8
  %7 = load ptr, ptr %6, align 8, !tbaa !23
  %.not6 = icmp eq ptr %7, null
  br i1 %.not6, label %10, label %8

8:                                                ; preds = %5
  %9 = getelementptr inbounds nuw i8, ptr %7, i64 16
  store ptr null, ptr %9, align 8, !tbaa !24
  br label %10

10:                                               ; preds = %8, %5
  store ptr null, ptr %3, align 8, !tbaa !14
  tail call void @ruby_xfree(ptr noundef nonnull %4) #19
  br label %11

11:                                               ; preds = %10, %1
  ret void
}